ccopy_reg
_reconstructor
p0
(c__main__
KnapsackData
p1
c__builtin__
object
p2
Ntp3
Rp4
(dp5
S'knapsacks'
p6
F2.0
sS'name'
p7
S'weing8'
p8
sS'items'
p9
F105.0
sS'capacities'
p10
(lp11
F500.0
aF500.0
asS'values'
p12
(lp13
F41850.0
aF38261.0
aF23800.0
aF21697.0
aF7074.0
aF5587.0
aF5560.0
aF5500.0
aF3450.0
aF2391.0
aF761.0
aF460.0
aF367.0
aF24785.0
aF47910.0
aF30250.0
aF107200.0
aF4235.0
aF9835.0
aF9262.0
aF15000.0
aF6399.0
aF6155.0
aF10874.0
aF37100.0
aF27040.0
aF4117.0
aF32240.0
aF1600.0
aF4500.0
aF70610.0
aF6570.0
aF15290.0
aF23840.0
aF16500.0
aF7010.0
aF16020.0
aF8000.0
aF31026.0
aF2568.0
aF2365.0
aF4350.0
aF1972.0
aF4975.0
aF29400.0
aF7471.0
aF2700.0
aF3840.0
aF22400.0
aF3575.0
aF13500.0
aF1125.0
aF11950.0
aF12753.0
aF10568.0
aF15600.0
aF20652.0
aF13150.0
aF2900.0
aF1790.0
aF4970.0
aF5770.0
aF8180.0
aF2450.0
aF7140.0
aF12470.0
aF6010.0
aF16000.0
aF11100.0
aF11093.0
aF4685.0
aF2590.0
aF11500.0
aF5820.0
aF2842.0
aF5000.0
aF3300.0
aF2800.0
aF5420.0
aF900.0
aF13300.0
aF8450.0
aF5300.0
aF750.0
aF1435.0
aF2100.0
aF7215.0
aF2605.0
aF2422.0
aF5500.0
aF8550.0
aF2700.0
aF540.0
aF2550.0
aF2450.0
aF725.0
aF445.0
aF700.0
aF1720.0
aF2675.0
aF220.0
aF300.0
aF405.0
aF150.0
aF70.0
asS'constraints'
p14
(lp15
(lp16
F75.0
aF40.0
aF365.0
aF95.0
aF25.0
aF17.0
aF125.0
aF20.0
aF22.0
aF84.0
aF75.0
aF50.0
aF15.0
aF0.0
aF0.0
aF12.0
aF0.0
aF10.0
aF0.0
aF50.0
aF0.0
aF0.0
aF10.0
aF0.0
aF0.0
aF50.0
aF60.0
aF150.0
aF0.0
aF0.0
aF75.0
aF0.0
aF102.0
aF0.0
aF0.0
aF40.0
aF60.0
aF0.0
aF165.0
aF0.0
aF0.0
aF0.0
aF45.0
aF0.0
aF0.0
aF0.0
aF25.0
aF0.0
aF150.0
aF0.0
aF0.0
aF0.0
aF158.0
aF0.0
aF85.0
aF95.0
aF0.0
aF89.0
aF20.0
aF0.0
aF0.0
aF0.0
aF0.0
aF0.0
aF0.0
aF80.0
aF0.0
aF110.0
aF0.0
aF15.0
aF0.0
aF60.0
aF5.0
aF135.0
aF0.0
aF0.0
aF25.0
aF0.0
aF300.0
aF35.0
aF100.0
aF0.0
aF0.0
aF25.0
aF0.0
aF0.0
aF225.0
aF25.0
aF0.0
aF0.0
aF0.0
aF0.0
aF0.0
aF0.0
aF0.0
aF5.0
aF0.0
aF60.0
aF0.0
aF100.0
aF0.0
aF0.0
aF0.0
aF0.0
aF0.0
aa(lp17
F0.0
aF0.0
aF0.0
aF0.0
aF0.0
aF0.0
aF0.0
aF0.0
aF0.0
aF0.0
aF0.0
aF0.0
aF0.0
aF5.0
aF10.0
aF10.0
aF50.0
aF2.0
aF5.0
aF5.0
aF10.0
aF5.0
aF6.0
aF11.0
aF41.0
aF30.0
aF5.0
aF40.0
aF2.0
aF6.0
aF100.0
aF10.0
aF25.0
aF39.0
aF30.0
aF13.0
aF30.0
aF15.0
aF60.0
aF5.0
aF5.0
aF10.0
aF5.0
aF15.0
aF91.0
aF24.0
aF10.0
aF15.0
aF90.0
aF15.0
aF60.0
aF5.0
aF55.0
aF60.0
aF50.0
aF75.0
aF100.0
aF65.0
aF15.0
aF10.0
aF30.0
aF35.0
aF50.0
aF15.0
aF45.0
aF80.0
aF40.0
aF110.0
aF80.0
aF80.0
aF36.0
aF20.0
aF90.0
aF50.0
aF25.0
aF50.0
aF35.0
aF30.0
aF60.0
aF10.0
aF150.0
aF110.0
aF70.0
aF10.0
aF20.0
aF30.0
aF104.0
aF40.0
aF40.0
aF94.0
aF150.0
aF50.0
aF10.0
aF50.0
aF50.0
aF16.0
aF10.0
aF20.0
aF50.0
aF90.0
aF10.0
aF15.0
aF39.0
aF20.0
aF20.0
aasb.